; Function Attrs: nounwind sspstrong uwtable
define dso_local void @ruby_set_script_name(i64 noundef %0) local_unnamed_addr #0 {
  %2 = tail call i64 @rb_str_new_frozen(i64 noundef %0) #25
  %3 = load ptr, ptr @ruby_current_vm_ptr, align 8, !tbaa !12
  %4 = getelementptr inbounds nuw i8, ptr %3, i64 1264
  store i64 %2, ptr %4, align 8, !tbaa !71
  %5 = getelementptr inbounds nuw i8, ptr %3, i64 1256
  store i64 %2, ptr %5, align 8, !tbaa !72
  tail call void @rb_vm_set_progname(i64 noundef %2) #25
  ret void
}